target datalayout = "e-m:e-p270:32:32-p271:32:32-p272:64:64-i64:64-i128:128-f80:128-n8:16:32:64-S128"
target triple = "x86_64-pc-linux-gnu"

%struct.functor = type { ptr, i64 }

; Function Attrs: nounwind sspstrong uwtable
define dso_local i32 @rb_st_foreach(ptr noundef %0, ptr noundef %1, i64 noundef %2) #0 {
  %4 = alloca ptr, align 8
  %5 = alloca ptr, align 8
  %6 = alloca i64, align 8
  %7 = alloca %struct.functor, align 8
  store ptr %0, ptr %4, align 8, !tbaa !7
  store ptr %1, ptr %5, align 8, !tbaa !49
  store i64 %2, ptr %6, align 8, !tbaa !14
  call void @llvm.lifetime.start.p0(i64 16, ptr %7) #23
  %8 = getelementptr inbounds nuw %struct.functor, ptr %7, i32 0, i32 0
  %9 = load ptr, ptr %5, align 8, !tbaa !49
  store ptr %9, ptr %8, align 8, !tbaa !60
  %10 = getelementptr inbounds nuw %struct.functor, ptr %7, i32 0, i32 1
  %11 = load i64, ptr %6, align 8, !tbaa !14
  store i64 %11, ptr %10, align 8, !tbaa !62
  %12 = load ptr, ptr %4, align 8, !tbaa !7
  %13 = ptrtoint ptr %7 to i64
  %14 = call i32 @st_general_foreach(ptr noundef %12, ptr noundef @apply_functor, ptr noundef null, i64 noundef %13, i32 noundef 0)
  call void @llvm.lifetime.end.p0(i64 16, ptr %7) #23
  ret i32 %14
}