; Function Attrs: nounwind sspstrong uwtable
define dso_local range(i32 0, 2) i32 @rb_st_foreach(ptr noundef captures(none) %0, ptr noundef %1, i64 noundef %2) local_unnamed_addr #0 {
  %4 = alloca %struct.functor, align 8
  call void @llvm.lifetime.start.p0(i64 16, ptr nonnull %4) #25
  store ptr %1, ptr %4, align 8, !tbaa !63
  %5 = getelementptr inbounds nuw i8, ptr %4, i64 8
  store i64 %2, ptr %5, align 8, !tbaa !65
  %6 = ptrtoint ptr %4 to i64
  %7 = call fastcc i32 @st_general_foreach(ptr noundef %0, ptr noundef nonnull @apply_functor, ptr noundef null, i64 noundef %6, i32 noundef 0)
  call void @llvm.lifetime.end.p0(i64 16, ptr nonnull %4) #25
  ret i32 %7
}